target datalayout = "e-m:e-p270:32:32-p271:32:32-p272:64:64-i64:64-i128:128-f80:128-n8:16:32:64-S128"
target triple = "x86_64-pc-linux-gnu"

%"class.cv::dnn::dnn4_v20240521::(anonymous namespace)::ProtobufShutdown" = type { i8 }

; Function Attrs: mustprogress nounwind uwtable
define internal void @_ZN2cv3dnn14dnn4_v2024052112_GLOBAL__N_116ProtobufShutdownD2Ev(ptr noundef nonnull align 1 dereferenceable(1) %0) unnamed_addr #7 align 2 personality ptr @__gxx_personality_v0 {
  %2 = alloca ptr, align 8
  store ptr %0, ptr %2, align 8
  %3 = load ptr, ptr %2, align 8
  %4 = getelementptr inbounds %"class.cv::dnn::dnn4_v20240521::(anonymous namespace)::ProtobufShutdown", ptr %3, i32 0, i32 0
  store i8 0, ptr %4, align 1
  invoke void @_ZN6google8protobuf23ShutdownProtobufLibraryEv()
          to label %5 unwind label %6

5:                                                ; preds = %1
  ret void

6:                                                ; preds = %1
  %7 = landingpad { ptr, i32 }
          catch ptr null
  %8 = extractvalue { ptr, i32 } %7, 0
  call void @__clang_call_terminate(ptr %8) #10
  unreachable
}