; Function Attrs: mustprogress nounwind uwtable
define internal void @_ZN2cv3dnn14dnn4_v2024052112_GLOBAL__N_116ProtobufShutdownD2Ev(ptr nocapture noundef nonnull writeonly align 1 dereferenceable(1) %0) unnamed_addr #6 align 2 personality ptr @__gxx_personality_v0 {
  store i8 0, ptr %0, align 1
  invoke void @_ZN6google8protobuf23ShutdownProtobufLibraryEv()
          to label %2 unwind label %3

2:                                                ; preds = %1
  ret void

3:                                                ; preds = %1
  %4 = landingpad { ptr, i32 }
          catch ptr null
  %5 = extractvalue { ptr, i32 } %4, 0
  tail call void @__clang_call_terminate(ptr %5) #11
  unreachable
}